target datalayout = "e-m:e-p270:32:32-p271:32:32-p272:64:64-i64:64-i128:128-f80:128-n8:16:32:64-S128"
target triple = "x86_64-pc-linux-gnu"

%struct._DOT11DECRYPT_MAC_FRAME = type { [2 x i8], [2 x i8], [6 x i8], [6 x i8], [6 x i8], [2 x i8] }
%struct._DOT11DECRYPT_MAC_FRAME_ADDR4 = type { [2 x i8], [2 x i8], [6 x i8], [6 x i8], [6 x i8], [2 x i8], [6 x i8] }
%struct._DOT11DECRYPT_MAC_FRAME_ADDR4_QOS = type { [2 x i8], [2 x i8], [6 x i8], [6 x i8], [6 x i8], [2 x i8], [6 x i8], [2 x i8] }
%struct._DOT11DECRYPT_MAC_FRAME_QOS = type { [2 x i8], [2 x i8], [6 x i8], [6 x i8], [6 x i8], [2 x i8], [2 x i8] }

; Function Attrs: nounwind uwtable
define hidden void @dot11decrypt_construct_aad(ptr noundef %0, ptr noundef %1, ptr noundef %2) #0 {
  %4 = alloca ptr, align 8
  %5 = alloca ptr, align 8
  %6 = alloca ptr, align 8
  %7 = alloca i8, align 1
  %8 = alloca i32, align 4
  %9 = alloca ptr, align 8
  %10 = alloca ptr, align 8
  store ptr %0, ptr %4, align 8
  store ptr %1, ptr %5, align 8
  store ptr %2, ptr %6, align 8
  %11 = load ptr, ptr %4, align 8
  %12 = getelementptr inbounds %struct._DOT11DECRYPT_MAC_FRAME, ptr %11, i32 0, i32 0
  %13 = getelementptr [2 x i8], ptr %12, i64 0, i64 0
  %14 = load i8, ptr %13, align 1
  %15 = zext i8 %14 to i32
  %16 = ashr i32 %15, 2
  %17 = and i32 %16, 3
  %18 = trunc i32 %17 to i8
  %19 = zext i8 %18 to i32
  %20 = icmp eq i32 %19, 0
  %21 = zext i1 %20 to i32
  %22 = trunc i32 %21 to i8
  store i8 %22, ptr %7, align 1
  store i32 22, ptr %8, align 4
  %23 = load i8, ptr %7, align 1
  %24 = icmp ne i8 %23, 0
  br i1 %24, label %35, label %25

25:                                               ; preds = %3
  %26 = load ptr, ptr %4, align 8
  %27 = getelementptr inbounds %struct._DOT11DECRYPT_MAC_FRAME, ptr %26, i32 0, i32 0
  %28 = getelementptr [2 x i8], ptr %27, i64 0, i64 0
  %29 = load i8, ptr %28, align 1
  %30 = zext i8 %29 to i32
  %31 = and i32 %30, 143
  %32 = trunc i32 %31 to i8
  %33 = load ptr, ptr %5, align 8
  %34 = getelementptr i8, ptr %33, i64 0
  store i8 %32, ptr %34, align 1
  br label %42

35:                                               ; preds = %3
  %36 = load ptr, ptr %4, align 8
  %37 = getelementptr inbounds %struct._DOT11DECRYPT_MAC_FRAME, ptr %36, i32 0, i32 0
  %38 = getelementptr [2 x i8], ptr %37, i64 0, i64 0
  %39 = load i8, ptr %38, align 1
  %40 = load ptr, ptr %5, align 8
  %41 = getelementptr i8, ptr %40, i64 0
  store i8 %39, ptr %41, align 1
  br label %42

42:                                               ; preds = %35, %25
  %43 = load ptr, ptr %4, align 8
  %44 = getelementptr inbounds %struct._DOT11DECRYPT_MAC_FRAME, ptr %43, i32 0, i32 0
  %45 = getelementptr [2 x i8], ptr %44, i64 0, i64 0
  %46 = load i8, ptr %45, align 1
  %47 = zext i8 %46 to i32
  %48 = and i32 %47, 140
  %49 = icmp eq i32 %48, 136
  br i1 %49, label %50, label %61

50:                                               ; preds = %42
  %51 = load ptr, ptr %4, align 8
  %52 = getelementptr inbounds %struct._DOT11DECRYPT_MAC_FRAME, ptr %51, i32 0, i32 0
  %53 = getelementptr [2 x i8], ptr %52, i64 0, i64 1
  %54 = load i8, ptr %53, align 1
  %55 = zext i8 %54 to i32
  %56 = and i32 %55, 71
  %57 = or i32 %56, 64
  %58 = trunc i32 %57 to i8
  %59 = load ptr, ptr %5, align 8
  %60 = getelementptr i8, ptr %59, i64 1
  store i8 %58, ptr %60, align 1
  br label %72

61:                                               ; preds = %42
  %62 = load ptr, ptr %4, align 8
  %63 = getelementptr inbounds %struct._DOT11DECRYPT_MAC_FRAME, ptr %62, i32 0, i32 0
  %64 = getelementptr [2 x i8], ptr %63, i64 0, i64 1
  %65 = load i8, ptr %64, align 1
  %66 = zext i8 %65 to i32
  %67 = and i32 %66, 199
  %68 = or i32 %67, 64
  %69 = trunc i32 %68 to i8
  %70 = load ptr, ptr %5, align 8
  %71 = getelementptr i8, ptr %70, i64 1
  store i8 %69, ptr %71, align 1
  br label %72

72:                                               ; preds = %61, %50
  %73 = load ptr, ptr %5, align 8
  %74 = getelementptr i8, ptr %73, i64 2
  %75 = load ptr, ptr %4, align 8
  %76 = getelementptr inbounds %struct._DOT11DECRYPT_MAC_FRAME, ptr %75, i32 0, i32 2
  %77 = getelementptr inbounds [6 x i8], ptr %76, i64 0, i64 0
  call void @llvm.memcpy.p0.p0.i64(ptr align 1 %74, ptr align 1 %77, i64 6, i1 false)
  %78 = load ptr, ptr %5, align 8
  %79 = getelementptr i8, ptr %78, i64 8
  %80 = load ptr, ptr %4, align 8
  %81 = getelementptr inbounds %struct._DOT11DECRYPT_MAC_FRAME, ptr %80, i32 0, i32 3
  %82 = getelementptr inbounds [6 x i8], ptr %81, i64 0, i64 0
  call void @llvm.memcpy.p0.p0.i64(ptr align 1 %79, ptr align 1 %82, i64 6, i1 false)
  %83 = load ptr, ptr %5, align 8
  %84 = getelementptr i8, ptr %83, i64 14
  %85 = load ptr, ptr %4, align 8
  %86 = getelementptr inbounds %struct._DOT11DECRYPT_MAC_FRAME, ptr %85, i32 0, i32 4
  %87 = getelementptr inbounds [6 x i8], ptr %86, i64 0, i64 0
  call void @llvm.memcpy.p0.p0.i64(ptr align 1 %84, ptr align 1 %87, i64 6, i1 false)
  %88 = load ptr, ptr %4, align 8
  %89 = getelementptr inbounds %struct._DOT11DECRYPT_MAC_FRAME, ptr %88, i32 0, i32 5
  %90 = getelementptr [2 x i8], ptr %89, i64 0, i64 0
  %91 = load i8, ptr %90, align 1
  %92 = zext i8 %91 to i32
  %93 = and i32 %92, 15
  %94 = trunc i32 %93 to i8
  %95 = load ptr, ptr %5, align 8
  %96 = getelementptr i8, ptr %95, i64 20
  store i8 %94, ptr %96, align 1
  %97 = load ptr, ptr %5, align 8
  %98 = getelementptr i8, ptr %97, i64 21
  store i8 0, ptr %98, align 1
  %99 = load ptr, ptr %4, align 8
  %100 = getelementptr inbounds %struct._DOT11DECRYPT_MAC_FRAME, ptr %99, i32 0, i32 0
  %101 = getelementptr [2 x i8], ptr %100, i64 0, i64 1
  %102 = load i8, ptr %101, align 1
  %103 = zext i8 %102 to i32
  %104 = and i32 %103, 3
  %105 = icmp eq i32 %104, 3
  br i1 %105, label %106, label %137

106:                                              ; preds = %72
  %107 = load i32, ptr %8, align 4
  %108 = add i32 %107, 6
  store i32 %108, ptr %8, align 4
  %109 = load ptr, ptr %5, align 8
  %110 = getelementptr i8, ptr %109, i64 22
  %111 = load ptr, ptr %4, align 8
  %112 = getelementptr inbounds %struct._DOT11DECRYPT_MAC_FRAME_ADDR4, ptr %111, i32 0, i32 6
  %113 = getelementptr inbounds [6 x i8], ptr %112, i64 0, i64 0
  call void @llvm.memcpy.p0.p0.i64(ptr align 1 %110, ptr align 1 %113, i64 6, i1 false)
  %114 = load ptr, ptr %4, align 8
  %115 = getelementptr inbounds %struct._DOT11DECRYPT_MAC_FRAME, ptr %114, i32 0, i32 0
  %116 = getelementptr [2 x i8], ptr %115, i64 0, i64 0
  %117 = load i8, ptr %116, align 1
  %118 = zext i8 %117 to i32
  %119 = and i32 %118, 140
  %120 = icmp eq i32 %119, 136
  br i1 %120, label %121, label %136

121:                                              ; preds = %106
  %122 = load ptr, ptr %4, align 8
  store ptr %122, ptr %9, align 8
  %123 = load ptr, ptr %9, align 8
  %124 = getelementptr inbounds %struct._DOT11DECRYPT_MAC_FRAME_ADDR4_QOS, ptr %123, i32 0, i32 7
  %125 = getelementptr [2 x i8], ptr %124, i64 0, i64 0
  %126 = load i8, ptr %125, align 1
  %127 = zext i8 %126 to i32
  %128 = and i32 %127, 15
  %129 = trunc i32 %128 to i8
  %130 = load ptr, ptr %5, align 8
  %131 = getelementptr i8, ptr %130, i64 28
  store i8 %129, ptr %131, align 1
  %132 = load ptr, ptr %5, align 8
  %133 = getelementptr i8, ptr %132, i64 29
  store i8 0, ptr %133, align 1
  %134 = load i32, ptr %8, align 4
  %135 = add i32 %134, 2
  store i32 %135, ptr %8, align 4
  br label %136

136:                                              ; preds = %121, %106
  br label %161

137:                                              ; preds = %72
  %138 = load ptr, ptr %4, align 8
  %139 = getelementptr inbounds %struct._DOT11DECRYPT_MAC_FRAME, ptr %138, i32 0, i32 0
  %140 = getelementptr [2 x i8], ptr %139, i64 0, i64 0
  %141 = load i8, ptr %140, align 1
  %142 = zext i8 %141 to i32
  %143 = and i32 %142, 140
  %144 = icmp eq i32 %143, 136
  br i1 %144, label %145, label %160

145:                                              ; preds = %137
  %146 = load ptr, ptr %4, align 8
  store ptr %146, ptr %10, align 8
  %147 = load ptr, ptr %10, align 8
  %148 = getelementptr inbounds %struct._DOT11DECRYPT_MAC_FRAME_QOS, ptr %147, i32 0, i32 6
  %149 = getelementptr [2 x i8], ptr %148, i64 0, i64 0
  %150 = load i8, ptr %149, align 1
  %151 = zext i8 %150 to i32
  %152 = and i32 %151, 15
  %153 = trunc i32 %152 to i8
  %154 = load ptr, ptr %5, align 8
  %155 = getelementptr i8, ptr %154, i64 22
  store i8 %153, ptr %155, align 1
  %156 = load ptr, ptr %5, align 8
  %157 = getelementptr i8, ptr %156, i64 23
  store i8 0, ptr %157, align 1
  %158 = load i32, ptr %8, align 4
  %159 = add i32 %158, 2
  store i32 %159, ptr %8, align 4
  br label %160

160:                                              ; preds = %145, %137
  br label %161

161:                                              ; preds = %160, %136
  %162 = load i32, ptr %8, align 4
  %163 = sext i32 %162 to i64
  %164 = load ptr, ptr %6, align 8
  store i64 %163, ptr %164, align 8
  ret void
}