; Function Attrs: mustprogress nofree norecurse nosync nounwind willreturn memory(argmem: readwrite) uwtable
define hidden void @dot11decrypt_construct_aad(ptr noundef readonly captures(none) %0, ptr noundef writeonly captures(none) initializes((0, 22)) %1, ptr noundef writeonly captures(none) initializes((0, 8)) %2) local_unnamed_addr #0 {
  %4 = load i8, ptr %0, align 1
  %5 = and i8 %4, 12
  %6 = icmp eq i8 %5, 0
  %7 = and i8 %4, -113
  %storemerge = select i1 %6, i8 %4, i8 %7
  store i8 %storemerge, ptr %1, align 1
  %8 = load i8, ptr %0, align 1
  %9 = and i8 %8, -116
  %10 = icmp eq i8 %9, -120
  %11 = getelementptr i8, ptr %0, i64 1
  %12 = load i8, ptr %11, align 1
  %. = select i1 %10, i8 7, i8 -121
  %13 = and i8 %12, %.
  %.sink = or disjoint i8 %13, 64
  %14 = getelementptr i8, ptr %1, i64 1
  store i8 %.sink, ptr %14, align 1
  %15 = getelementptr i8, ptr %1, i64 2
  %16 = getelementptr inbounds nuw i8, ptr %0, i64 4
  tail call void @llvm.memcpy.p0.p0.i64(ptr noundef nonnull align 1 dereferenceable(6) %15, ptr noundef nonnull align 1 dereferenceable(6) %16, i64 6, i1 false)
  %17 = getelementptr i8, ptr %1, i64 8
  %18 = getelementptr inbounds nuw i8, ptr %0, i64 10
  tail call void @llvm.memcpy.p0.p0.i64(ptr noundef nonnull align 1 dereferenceable(6) %17, ptr noundef nonnull align 1 dereferenceable(6) %18, i64 6, i1 false)
  %19 = getelementptr i8, ptr %1, i64 14
  %20 = getelementptr inbounds nuw i8, ptr %0, i64 16
  tail call void @llvm.memcpy.p0.p0.i64(ptr noundef nonnull align 1 dereferenceable(6) %19, ptr noundef nonnull align 1 dereferenceable(6) %20, i64 6, i1 false)
  %21 = getelementptr inbounds nuw i8, ptr %0, i64 22
  %22 = load i8, ptr %21, align 1
  %23 = and i8 %22, 15
  %24 = getelementptr i8, ptr %1, i64 20
  store i8 %23, ptr %24, align 1
  %25 = getelementptr i8, ptr %1, i64 21
  store i8 0, ptr %25, align 1
  %26 = getelementptr i8, ptr %0, i64 1
  %27 = load i8, ptr %26, align 1
  %28 = and i8 %27, 3
  %29 = icmp eq i8 %28, 3
  br i1 %29, label %30, label %36

30:                                               ; preds = %3
  %31 = getelementptr i8, ptr %1, i64 22
  %32 = getelementptr inbounds nuw i8, ptr %0, i64 24
  tail call void @llvm.memcpy.p0.p0.i64(ptr noundef nonnull align 1 dereferenceable(6) %31, ptr noundef nonnull align 1 dereferenceable(6) %32, i64 6, i1 false)
  %33 = load i8, ptr %0, align 1
  %34 = and i8 %33, -116
  %35 = icmp eq i8 %34, -120
  br i1 %35, label %.sink.split, label %45

36:                                               ; preds = %3
  %37 = load i8, ptr %0, align 1
  %38 = and i8 %37, -116
  %39 = icmp eq i8 %38, -120
  br i1 %39, label %.sink.split, label %45

.sink.split:                                      ; preds = %36, %30
  %.sink45 = phi i64 [ 30, %30 ], [ 24, %36 ]
  %.sink42 = phi i64 [ 28, %30 ], [ 22, %36 ]
  %.sink39 = phi i64 [ 29, %30 ], [ 23, %36 ]
  %40 = getelementptr inbounds nuw i8, ptr %0, i64 %.sink45
  %41 = load i8, ptr %40, align 1
  %42 = and i8 %41, 15
  %43 = getelementptr i8, ptr %1, i64 %.sink42
  store i8 %42, ptr %43, align 1
  %44 = getelementptr i8, ptr %1, i64 %.sink39
  store i8 0, ptr %44, align 1
  br label %45

45:                                               ; preds = %.sink.split, %36, %30
  %.0 = phi i64 [ 28, %30 ], [ 22, %36 ], [ %.sink45, %.sink.split ]
  store i64 %.0, ptr %2, align 8
  ret void
}